#include <math.h>
#include <stdio.h>
#include <stdlib.h>
#include <string.h>
#include <iostream>
using namespace std;

int main()
{int n,i,s;
cin>>n; 
s=0;
 for (i=1;i<=n;i++)
 if (i % 7 !=0)//???? ???? 
 if (i % 10 !=7)
 if (i/ 10 !=7)
 {s=s+i*i;
     
     
     }   
     cout<<s;

    
    
    
    
    } 